target datalayout = "e-m:e-p270:32:32-p271:32:32-p272:64:64-i64:64-i128:128-f80:128-n8:16:32:64-S128"
target triple = "x86_64-pc-linux-gnu"

%struct.AVCodecContext = type { ptr, i32, i32, ptr, i32, i32, ptr, ptr, ptr, i64, i32, i32, ptr, i32, %struct.AVRational, %struct.AVRational, %struct.AVRational, i32, i32, i32, i32, i32, %struct.AVRational, i32, i32, i32, i32, i32, i32, i32, i32, i32, i32, i32, ptr, ptr, i32, float, float, float, float, float, float, float, float, float, i32, i32, i32, i32, i32, i32, i32, i32, i32, i32, i32, i32, ptr, ptr, ptr, i32, i32, i32, i32, i32, i32, i32, i32, i32, i32, %struct.AVChannelLayout, i32, i32, i32, i32, i32, i32, i32, i32, ptr, i32, i32, i32, float, float, i32, i32, i32, i32, i32, ptr, i64, i64, float, float, i32, i32, ptr, ptr, i32, i32, i32, i32, i32, ptr, ptr, ptr, ptr, i32, i32, [8 x i64], i32, i32, i32, i32, i32, i32, i32, ptr, ptr, i32, i32, i32, i32, i32, i32, i32, i32, i32, i32, ptr, ptr, i32, i32, ptr, ptr, ptr, ptr, i32, i32, i64, i32, i32, i64, ptr, i64, ptr, i32, ptr, i32 }
%struct.AVRational = type { i32, i32 }
%struct.AVChannelLayout = type { i32, i32, %union.anon.0, ptr }
%union.anon.0 = type { i64 }
%struct.MPADecodeContext = type { i32, i32, i32, i32, i32, i32, i32, i32, i32, i32, [1048 x i8], i32, i32, i32, %struct.GetBitContext, %struct.GetBitContext, [2 x [1024 x float]], [2 x i32], [8 x i8], [2 x [36 x [32 x float]]], [2 x [576 x float]], [2 x [2 x %struct.GranuleDef]], i32, i32, i32, ptr, %struct.MPADSPContext, ptr, ptr, i32 }
%struct.GetBitContext = type { ptr, ptr, i32, i32, i32 }
%struct.GranuleDef = type { i8, i32, i32, i32, i32, i8, i8, [3 x i32], [3 x i32], i8, i8, [3 x i32], i32, i32, i32, [40 x i8], [12 x i8], [576 x float] }
%struct.MPADSPContext = type { ptr, ptr, ptr, ptr, ptr, ptr }
%struct.MPEG4AudioConfig = type { i32, i32, i32, i32, i32, i32, i32, i32, i32, i32, i32, i32 }
%struct.MP3On4DecodeContext = type { i32, i32, ptr, [5 x ptr] }

@.str.34 = private unnamed_addr constant [39 x i8] c"Codec extradata missing or too short.\0A\00", align 1
@.str.35 = private unnamed_addr constant [32 x i8] c"Invalid channel config number.\0A\00", align 1
@mp3Frames = internal constant [8 x i8] c"\00\01\01\02\03\03\04\05", align 1
@chan_offset = internal constant [8 x [5 x i8]] [[5 x i8] zeroinitializer, [5 x i8] zeroinitializer, [5 x i8] zeroinitializer, [5 x i8] c"\02\00\00\00\00", [5 x i8] c"\02\00\03\00\00", [5 x i8] c"\02\00\03\00\00", [5 x i8] c"\02\00\04\03\00", [5 x i8] c"\02\00\06\04\03"], align 16
@chan_layout = internal constant [8 x i16] [i16 0, i16 4, i16 3, i16 7, i16 263, i16 1543, i16 1551, i16 1599], align 16

; Function Attrs: cold nounwind optsize uwtable
define internal i32 @decode_init_mp3on4(ptr noundef %0) #0 {
  %2 = alloca i32, align 4
  %3 = alloca ptr, align 8
  %4 = alloca ptr, align 8
  %5 = alloca %struct.MPEG4AudioConfig, align 4
  %6 = alloca i32, align 4
  %7 = alloca i32, align 4
  %8 = alloca i32, align 4
  store ptr %0, ptr %3, align 8, !tbaa !4
  call void @llvm.lifetime.start.p0(i64 8, ptr %4) #13
  %9 = load ptr, ptr %3, align 8, !tbaa !4
  %10 = getelementptr inbounds nuw %struct.AVCodecContext, ptr %9, i32 0, i32 6
  %11 = load ptr, ptr %10, align 8, !tbaa !9
  store ptr %11, ptr %4, align 8, !tbaa !78
  call void @llvm.lifetime.start.p0(i64 48, ptr %5) #13
  call void @llvm.lifetime.start.p0(i64 4, ptr %6) #13
  call void @llvm.lifetime.start.p0(i64 4, ptr %7) #13
  %12 = load ptr, ptr %3, align 8, !tbaa !4
  %13 = getelementptr inbounds nuw %struct.AVCodecContext, ptr %12, i32 0, i32 13
  %14 = load i32, ptr %13, align 8, !tbaa !80
  %15 = icmp slt i32 %14, 2
  br i1 %15, label %21, label %16

16:                                               ; preds = %1
  %17 = load ptr, ptr %3, align 8, !tbaa !4
  %18 = getelementptr inbounds nuw %struct.AVCodecContext, ptr %17, i32 0, i32 12
  %19 = load ptr, ptr %18, align 8, !tbaa !81
  %20 = icmp ne ptr %19, null
  br i1 %20, label %23, label %21

21:                                               ; preds = %16, %1
  %22 = load ptr, ptr %3, align 8, !tbaa !4
  call void (ptr, i32, ptr, ...) @av_log(ptr noundef %22, i32 noundef 16, ptr noundef @.str.34)
  store i32 -1094995529, ptr %2, align 4
  store i32 1, ptr %8, align 4
  br label %176

23:                                               ; preds = %16
  %24 = load ptr, ptr %3, align 8, !tbaa !4
  %25 = getelementptr inbounds nuw %struct.AVCodecContext, ptr %24, i32 0, i32 12
  %26 = load ptr, ptr %25, align 8, !tbaa !81
  %27 = load ptr, ptr %3, align 8, !tbaa !4
  %28 = getelementptr inbounds nuw %struct.AVCodecContext, ptr %27, i32 0, i32 13
  %29 = load i32, ptr %28, align 8, !tbaa !80
  %30 = load ptr, ptr %3, align 8, !tbaa !4
  %31 = call i32 @avpriv_mpeg4audio_get_config2(ptr noundef %5, ptr noundef %26, i32 noundef %29, i32 noundef 1, ptr noundef %30)
  %32 = getelementptr inbounds nuw %struct.MPEG4AudioConfig, ptr %5, i32 0, i32 3
  %33 = load i32, ptr %32, align 4, !tbaa !82
  %34 = icmp ne i32 %33, 0
  br i1 %34, label %35, label %39

35:                                               ; preds = %23
  %36 = getelementptr inbounds nuw %struct.MPEG4AudioConfig, ptr %5, i32 0, i32 3
  %37 = load i32, ptr %36, align 4, !tbaa !82
  %38 = icmp sgt i32 %37, 7
  br i1 %38, label %39, label %41

39:                                               ; preds = %35, %23
  %40 = load ptr, ptr %3, align 8, !tbaa !4
  call void (ptr, i32, ptr, ...) @av_log(ptr noundef %40, i32 noundef 16, ptr noundef @.str.35)
  store i32 -1094995529, ptr %2, align 4
  store i32 1, ptr %8, align 4
  br label %176

41:                                               ; preds = %35
  %42 = getelementptr inbounds nuw %struct.MPEG4AudioConfig, ptr %5, i32 0, i32 3
  %43 = load i32, ptr %42, align 4, !tbaa !82
  %44 = sext i32 %43 to i64
  %45 = getelementptr inbounds [8 x i8], ptr @mp3Frames, i64 0, i64 %44
  %46 = load i8, ptr %45, align 1, !tbaa !57
  %47 = zext i8 %46 to i32
  %48 = load ptr, ptr %4, align 8, !tbaa !78
  %49 = getelementptr inbounds nuw %struct.MP3On4DecodeContext, ptr %48, i32 0, i32 0
  store i32 %47, ptr %49, align 8, !tbaa !84
  %50 = getelementptr inbounds nuw %struct.MPEG4AudioConfig, ptr %5, i32 0, i32 3
  %51 = load i32, ptr %50, align 4, !tbaa !82
  %52 = sext i32 %51 to i64
  %53 = getelementptr inbounds [8 x [5 x i8]], ptr @chan_offset, i64 0, i64 %52
  %54 = getelementptr inbounds [5 x i8], ptr %53, i64 0, i64 0
  %55 = load ptr, ptr %4, align 8, !tbaa !78
  %56 = getelementptr inbounds nuw %struct.MP3On4DecodeContext, ptr %55, i32 0, i32 2
  store ptr %54, ptr %56, align 8, !tbaa !86
  %57 = load ptr, ptr %3, align 8, !tbaa !4
  %58 = getelementptr inbounds nuw %struct.AVCodecContext, ptr %57, i32 0, i32 71
  call void @av_channel_layout_uninit(ptr noundef %58)
  %59 = load ptr, ptr %3, align 8, !tbaa !4
  %60 = getelementptr inbounds nuw %struct.AVCodecContext, ptr %59, i32 0, i32 71
  %61 = getelementptr inbounds nuw %struct.MPEG4AudioConfig, ptr %5, i32 0, i32 3
  %62 = load i32, ptr %61, align 4, !tbaa !82
  %63 = sext i32 %62 to i64
  %64 = getelementptr inbounds [8 x i16], ptr @chan_layout, i64 0, i64 %63
  %65 = load i16, ptr %64, align 2, !tbaa !87
  %66 = sext i16 %65 to i64
  %67 = call i32 @av_channel_layout_from_mask(ptr noundef %60, i64 noundef %66)
  %68 = getelementptr inbounds nuw %struct.MPEG4AudioConfig, ptr %5, i32 0, i32 2
  %69 = load i32, ptr %68, align 4, !tbaa !89
  %70 = icmp slt i32 %69, 16000
  br i1 %70, label %71, label %74

71:                                               ; preds = %41
  %72 = load ptr, ptr %4, align 8, !tbaa !78
  %73 = getelementptr inbounds nuw %struct.MP3On4DecodeContext, ptr %72, i32 0, i32 1
  store i32 -2097152, ptr %73, align 4, !tbaa !90
  br label %77

74:                                               ; preds = %41
  %75 = load ptr, ptr %4, align 8, !tbaa !78
  %76 = getelementptr inbounds nuw %struct.MP3On4DecodeContext, ptr %75, i32 0, i32 1
  store i32 -1048576, ptr %76, align 4, !tbaa !90
  br label %77

77:                                               ; preds = %74, %71
  %78 = call noalias ptr @av_mallocz(i64 noundef 33024)
  %79 = load ptr, ptr %4, align 8, !tbaa !78
  %80 = getelementptr inbounds nuw %struct.MP3On4DecodeContext, ptr %79, i32 0, i32 3
  %81 = getelementptr inbounds [5 x ptr], ptr %80, i64 0, i64 0
  store ptr %78, ptr %81, align 8, !tbaa !29
  %82 = load ptr, ptr %4, align 8, !tbaa !78
  %83 = getelementptr inbounds nuw %struct.MP3On4DecodeContext, ptr %82, i32 0, i32 3
  %84 = getelementptr inbounds [5 x ptr], ptr %83, i64 0, i64 0
  %85 = load ptr, ptr %84, align 8, !tbaa !29
  %86 = icmp ne ptr %85, null
  br i1 %86, label %88, label %87

87:                                               ; preds = %77
  store i32 -12, ptr %2, align 4
  store i32 1, ptr %8, align 4
  br label %176

88:                                               ; preds = %77
  %89 = load ptr, ptr %4, align 8, !tbaa !78
  %90 = getelementptr inbounds nuw %struct.MP3On4DecodeContext, ptr %89, i32 0, i32 3
  %91 = getelementptr inbounds [5 x ptr], ptr %90, i64 0, i64 0
  %92 = load ptr, ptr %91, align 8, !tbaa !29
  %93 = load ptr, ptr %3, align 8, !tbaa !4
  %94 = getelementptr inbounds nuw %struct.AVCodecContext, ptr %93, i32 0, i32 6
  store ptr %92, ptr %94, align 8, !tbaa !9
  %95 = load ptr, ptr %3, align 8, !tbaa !4
  %96 = call i32 @decode_init(ptr noundef %95) #15
  store i32 %96, ptr %7, align 4, !tbaa !56
  %97 = load ptr, ptr %4, align 8, !tbaa !78
  %98 = load ptr, ptr %3, align 8, !tbaa !4
  %99 = getelementptr inbounds nuw %struct.AVCodecContext, ptr %98, i32 0, i32 6
  store ptr %97, ptr %99, align 8, !tbaa !9
  %100 = load i32, ptr %7, align 4, !tbaa !56
  %101 = icmp slt i32 %100, 0
  br i1 %101, label %102, label %104

102:                                              ; preds = %88
  %103 = load i32, ptr %7, align 4, !tbaa !56
  store i32 %103, ptr %2, align 4
  store i32 1, ptr %8, align 4
  br label %176

104:                                              ; preds = %88
  %105 = load ptr, ptr %4, align 8, !tbaa !78
  %106 = getelementptr inbounds nuw %struct.MP3On4DecodeContext, ptr %105, i32 0, i32 3
  %107 = getelementptr inbounds [5 x ptr], ptr %106, i64 0, i64 0
  %108 = load ptr, ptr %107, align 8, !tbaa !29
  %109 = getelementptr inbounds nuw %struct.MPADecodeContext, ptr %108, i32 0, i32 22
  store i32 1, ptr %109, align 16, !tbaa !47
  store i32 1, ptr %6, align 4, !tbaa !56
  br label %110

110:                                              ; preds = %172, %104
  %111 = load i32, ptr %6, align 4, !tbaa !56
  %112 = load ptr, ptr %4, align 8, !tbaa !78
  %113 = getelementptr inbounds nuw %struct.MP3On4DecodeContext, ptr %112, i32 0, i32 0
  %114 = load i32, ptr %113, align 8, !tbaa !84
  %115 = icmp slt i32 %111, %114
  br i1 %115, label %116, label %175

116:                                              ; preds = %110
  %117 = call noalias ptr @av_mallocz(i64 noundef 33024)
  %118 = load ptr, ptr %4, align 8, !tbaa !78
  %119 = getelementptr inbounds nuw %struct.MP3On4DecodeContext, ptr %118, i32 0, i32 3
  %120 = load i32, ptr %6, align 4, !tbaa !56
  %121 = sext i32 %120 to i64
  %122 = getelementptr inbounds [5 x ptr], ptr %119, i64 0, i64 %121
  store ptr %117, ptr %122, align 8, !tbaa !29
  %123 = load ptr, ptr %4, align 8, !tbaa !78
  %124 = getelementptr inbounds nuw %struct.MP3On4DecodeContext, ptr %123, i32 0, i32 3
  %125 = load i32, ptr %6, align 4, !tbaa !56
  %126 = sext i32 %125 to i64
  %127 = getelementptr inbounds [5 x ptr], ptr %124, i64 0, i64 %126
  %128 = load ptr, ptr %127, align 8, !tbaa !29
  %129 = icmp ne ptr %128, null
  br i1 %129, label %131, label %130

130:                                              ; preds = %116
  store i32 -12, ptr %2, align 4
  store i32 1, ptr %8, align 4
  br label %176

131:                                              ; preds = %116
  %132 = load ptr, ptr %4, align 8, !tbaa !78
  %133 = getelementptr inbounds nuw %struct.MP3On4DecodeContext, ptr %132, i32 0, i32 3
  %134 = load i32, ptr %6, align 4, !tbaa !56
  %135 = sext i32 %134 to i64
  %136 = getelementptr inbounds [5 x ptr], ptr %133, i64 0, i64 %135
  %137 = load ptr, ptr %136, align 8, !tbaa !29
  %138 = getelementptr inbounds nuw %struct.MPADecodeContext, ptr %137, i32 0, i32 22
  store i32 1, ptr %138, align 16, !tbaa !47
  %139 = load ptr, ptr %3, align 8, !tbaa !4
  %140 = load ptr, ptr %4, align 8, !tbaa !78
  %141 = getelementptr inbounds nuw %struct.MP3On4DecodeContext, ptr %140, i32 0, i32 3
  %142 = load i32, ptr %6, align 4, !tbaa !56
  %143 = sext i32 %142 to i64
  %144 = getelementptr inbounds [5 x ptr], ptr %141, i64 0, i64 %143
  %145 = load ptr, ptr %144, align 8, !tbaa !29
  %146 = getelementptr inbounds nuw %struct.MPADecodeContext, ptr %145, i32 0, i32 25
  store ptr %139, ptr %146, align 16, !tbaa !31
  %147 = load ptr, ptr %4, align 8, !tbaa !78
  %148 = getelementptr inbounds nuw %struct.MP3On4DecodeContext, ptr %147, i32 0, i32 3
  %149 = load i32, ptr %6, align 4, !tbaa !56
  %150 = sext i32 %149 to i64
  %151 = getelementptr inbounds [5 x ptr], ptr %148, i64 0, i64 %150
  %152 = load ptr, ptr %151, align 8, !tbaa !29
  %153 = getelementptr inbounds nuw %struct.MPADecodeContext, ptr %152, i32 0, i32 26
  %154 = load ptr, ptr %4, align 8, !tbaa !78
  %155 = getelementptr inbounds nuw %struct.MP3On4DecodeContext, ptr %154, i32 0, i32 3
  %156 = getelementptr inbounds [5 x ptr], ptr %155, i64 0, i64 0
  %157 = load ptr, ptr %156, align 8, !tbaa !29
  %158 = getelementptr inbounds nuw %struct.MPADecodeContext, ptr %157, i32 0, i32 26
  call void @llvm.memcpy.p0.p0.i64(ptr align 8 %153, ptr align 8 %158, i64 48, i1 false), !tbaa.struct !91
  %159 = load ptr, ptr %4, align 8, !tbaa !78
  %160 = getelementptr inbounds nuw %struct.MP3On4DecodeContext, ptr %159, i32 0, i32 3
  %161 = getelementptr inbounds [5 x ptr], ptr %160, i64 0, i64 0
  %162 = load ptr, ptr %161, align 8, !tbaa !29
  %163 = getelementptr inbounds nuw %struct.MPADecodeContext, ptr %162, i32 0, i32 27
  %164 = load ptr, ptr %163, align 8, !tbaa !41
  %165 = load ptr, ptr %4, align 8, !tbaa !78
  %166 = getelementptr inbounds nuw %struct.MP3On4DecodeContext, ptr %165, i32 0, i32 3
  %167 = load i32, ptr %6, align 4, !tbaa !56
  %168 = sext i32 %167 to i64
  %169 = getelementptr inbounds [5 x ptr], ptr %166, i64 0, i64 %168
  %170 = load ptr, ptr %169, align 8, !tbaa !29
  %171 = getelementptr inbounds nuw %struct.MPADecodeContext, ptr %170, i32 0, i32 27
  store ptr %164, ptr %171, align 8, !tbaa !41
  br label %172

172:                                              ; preds = %131
  %173 = load i32, ptr %6, align 4, !tbaa !56
  %174 = add nsw i32 %173, 1
  store i32 %174, ptr %6, align 4, !tbaa !56
  br label %110, !llvm.loop !92

175:                                              ; preds = %110
  store i32 0, ptr %2, align 4
  store i32 1, ptr %8, align 4
  br label %176

176:                                              ; preds = %175, %130, %102, %87, %39, %21
  call void @llvm.lifetime.end.p0(i64 4, ptr %7) #13
  call void @llvm.lifetime.end.p0(i64 4, ptr %6) #13
  call void @llvm.lifetime.end.p0(i64 48, ptr %5) #13
  call void @llvm.lifetime.end.p0(i64 8, ptr %4) #13
  %177 = load i32, ptr %2, align 4
  ret i32 %177
}