; Function Attrs: cold nounwind optsize uwtable
define internal range(i32 -1094995529, 1) i32 @decode_init_mp3on4(ptr noundef %0) #0 {
  %2 = alloca %struct.MPEG4AudioConfig, align 4
  %3 = getelementptr inbounds nuw i8, ptr %0, i64 32
  %4 = load ptr, ptr %3, align 8, !tbaa !4
  call void @llvm.lifetime.start.p0(i64 48, ptr nonnull %2) #14
  %5 = getelementptr inbounds nuw i8, ptr %0, i64 80
  %6 = load i32, ptr %5, align 8, !tbaa !66
  %7 = icmp slt i32 %6, 2
  br i1 %7, label %11, label %8

8:                                                ; preds = %1
  %9 = getelementptr inbounds nuw i8, ptr %0, i64 72
  %10 = load ptr, ptr %9, align 8, !tbaa !67
  %.not = icmp eq ptr %10, null
  br i1 %.not, label %11, label %12

11:                                               ; preds = %8, %1
  tail call void (ptr, i32, ptr, ...) @av_log(ptr noundef nonnull %0, i32 noundef 16, ptr noundef nonnull @.str.34) #14
  br label %.loopexit

12:                                               ; preds = %8
  %13 = call i32 @avpriv_mpeg4audio_get_config2(ptr noundef nonnull %2, ptr noundef nonnull %10, i32 noundef %6, i32 noundef 1, ptr noundef nonnull %0) #14
  %14 = getelementptr inbounds nuw i8, ptr %2, i64 12
  %15 = load i32, ptr %14, align 4, !tbaa !68
  %16 = icmp eq i32 %15, 0
  %17 = icmp sgt i32 %15, 7
  %or.cond = or i1 %16, %17
  br i1 %or.cond, label %18, label %19

18:                                               ; preds = %12
  call void (ptr, i32, ptr, ...) @av_log(ptr noundef nonnull %0, i32 noundef 16, ptr noundef nonnull @.str.35) #14
  br label %.loopexit

19:                                               ; preds = %12
  %20 = sext i32 %15 to i64
  %21 = getelementptr inbounds [8 x i8], ptr @mp3Frames, i64 0, i64 %20
  %22 = load i8, ptr %21, align 1, !tbaa !46
  %23 = zext i8 %22 to i32
  store i32 %23, ptr %4, align 8, !tbaa !70
  %24 = getelementptr inbounds [8 x [5 x i8]], ptr @chan_offset, i64 0, i64 %20
  %25 = getelementptr inbounds nuw i8, ptr %4, i64 8
  store ptr %24, ptr %25, align 8, !tbaa !72
  %26 = getelementptr inbounds nuw i8, ptr %0, i64 352
  call void @av_channel_layout_uninit(ptr noundef nonnull %26) #14
  %27 = load i32, ptr %14, align 4, !tbaa !68
  %28 = sext i32 %27 to i64
  %29 = getelementptr inbounds [8 x i16], ptr @chan_layout, i64 0, i64 %28
  %30 = load i16, ptr %29, align 2, !tbaa !73
  %31 = sext i16 %30 to i64
  %32 = call i32 @av_channel_layout_from_mask(ptr noundef nonnull %26, i64 noundef %31) #14
  %33 = getelementptr inbounds nuw i8, ptr %2, i64 8
  %34 = load i32, ptr %33, align 4, !tbaa !75
  %35 = icmp slt i32 %34, 16000
  %spec.select = select i1 %35, i32 -2097152, i32 -1048576
  %36 = getelementptr inbounds nuw i8, ptr %4, i64 4
  store i32 %spec.select, ptr %36, align 4, !tbaa !76
  %37 = call noalias ptr @av_mallocz(i64 noundef 33024) #14
  %38 = getelementptr inbounds nuw i8, ptr %4, i64 16
  store ptr %37, ptr %38, align 8, !tbaa !77
  %.not51 = icmp eq ptr %37, null
  br i1 %.not51, label %.loopexit, label %39

39:                                               ; preds = %19
  store ptr %37, ptr %3, align 8, !tbaa !4
  %40 = call i32 @decode_init(ptr noundef nonnull %0) #15
  store ptr %4, ptr %3, align 8, !tbaa !4
  %41 = icmp slt i32 %40, 0
  br i1 %41, label %.loopexit, label %42

42:                                               ; preds = %39
  %43 = load ptr, ptr %38, align 8, !tbaa !77
  %44 = getelementptr inbounds nuw i8, ptr %43, i64 32928
  store i32 1, ptr %44, align 16, !tbaa !42
  %45 = load i32, ptr %4, align 8, !tbaa !70
  %46 = icmp sgt i32 %45, 1
  br i1 %46, label %.lr.ph, label %.loopexit

.lr.ph:                                           ; preds = %42, %49
  %indvars.iv = phi i64 [ %indvars.iv.next, %49 ], [ 1, %42 ]
  %47 = call noalias ptr @av_mallocz(i64 noundef 33024) #14
  %48 = getelementptr inbounds nuw [5 x ptr], ptr %38, i64 0, i64 %indvars.iv
  store ptr %47, ptr %48, align 8, !tbaa !77
  %.not52 = icmp eq ptr %47, null
  br i1 %.not52, label %.loopexit, label %49

49:                                               ; preds = %.lr.ph
  %50 = getelementptr inbounds nuw i8, ptr %47, i64 32928
  store i32 1, ptr %50, align 16, !tbaa !42
  %51 = getelementptr inbounds nuw i8, ptr %47, i64 32944
  store ptr %0, ptr %51, align 16, !tbaa !27
  %52 = getelementptr inbounds nuw i8, ptr %47, i64 32952
  %53 = load ptr, ptr %38, align 8, !tbaa !77
  %54 = getelementptr inbounds nuw i8, ptr %53, i64 32952
  call void @llvm.memcpy.p0.p0.i64(ptr noundef nonnull align 8 dereferenceable(48) %52, ptr noundef nonnull align 8 dereferenceable(48) %54, i64 48, i1 false), !tbaa.struct !79
  %55 = getelementptr inbounds nuw i8, ptr %53, i64 33000
  %56 = load ptr, ptr %55, align 8, !tbaa !36
  %57 = getelementptr inbounds nuw i8, ptr %47, i64 33000
  store ptr %56, ptr %57, align 8, !tbaa !36
  %indvars.iv.next = add nuw nsw i64 %indvars.iv, 1
  %58 = load i32, ptr %4, align 8, !tbaa !70
  %59 = sext i32 %58 to i64
  %60 = icmp slt i64 %indvars.iv.next, %59
  br i1 %60, label %.lr.ph, label %.loopexit, !llvm.loop !80

.loopexit:                                        ; preds = %.lr.ph, %49, %42, %39, %19, %18, %11
  %.0 = phi i32 [ -1094995529, %11 ], [ -1094995529, %18 ], [ -12, %19 ], [ %40, %39 ], [ 0, %42 ], [ -12, %.lr.ph ], [ 0, %49 ]
  call void @llvm.lifetime.end.p0(i64 48, ptr nonnull %2) #14
  ret i32 %.0
}